target datalayout = "e-m:e-p270:32:32-p271:32:32-p272:64:64-i64:64-i128:128-f80:128-n8:16:32:64-S128"
target triple = "x86_64-pc-linux-gnu"

%struct.ml_dsa_key_st = type { ptr, ptr, ptr, ptr, [32 x i8], [64 x i8], [32 x i8], ptr, ptr, ptr, i32, i32, %struct.vector_st, %struct.vector_st, %struct.vector_st, %struct.vector_st }
%struct.vector_st = type { ptr, i64 }
%struct.ml_dsa_params_st = type { ptr, i32, i32, i32, i32, i32, i64, i64, i32, i32, i32, i32, i64, i64, i64 }
%struct.poly_st = type { [256 x i32] }

@.str.3 = private unnamed_addr constant [41 x i8] c"../openssl/crypto/ml_dsa/ml_dsa_vector.h\00", align 1

; Function Attrs: inlinehint nounwind uwtable
define internal void @vector_init(ptr noundef %0, ptr noundef %1, i64 noundef %2) #3 {
  %4 = alloca ptr, align 8
  %5 = alloca ptr, align 8
  %6 = alloca i64, align 8
  store ptr %0, ptr %4, align 8, !tbaa !35
  store ptr %1, ptr %5, align 8, !tbaa !41
  store i64 %2, ptr %6, align 8, !tbaa !23
  %7 = load ptr, ptr %5, align 8, !tbaa !41
  %8 = load ptr, ptr %4, align 8, !tbaa !35
  %9 = getelementptr inbounds nuw %struct.vector_st, ptr %8, i32 0, i32 0
  store ptr %7, ptr %9, align 8, !tbaa !37
  %10 = load i64, ptr %6, align 8, !tbaa !23
  %11 = load ptr, ptr %4, align 8, !tbaa !35
  %12 = getelementptr inbounds nuw %struct.vector_st, ptr %11, i32 0, i32 1
  store i64 %10, ptr %12, align 8, !tbaa !38
  ret void
}

; Function Attrs: inlinehint nounwind uwtable
define internal i32 @vector_alloc(ptr noundef %0, i64 noundef %1) #3 {
  %3 = alloca i32, align 4
  %4 = alloca ptr, align 8
  %5 = alloca i64, align 8
  store ptr %0, ptr %4, align 8, !tbaa !35
  store i64 %1, ptr %5, align 8, !tbaa !23
  %6 = load i64, ptr %5, align 8, !tbaa !23
  %7 = mul i64 %6, 1024
  %8 = call noalias ptr @CRYPTO_malloc(i64 noundef %7, ptr noundef @.str.3, i32 noundef 36)
  %9 = load ptr, ptr %4, align 8, !tbaa !35
  %10 = getelementptr inbounds nuw %struct.vector_st, ptr %9, i32 0, i32 0
  store ptr %8, ptr %10, align 8, !tbaa !37
  %11 = load ptr, ptr %4, align 8, !tbaa !35
  %12 = getelementptr inbounds nuw %struct.vector_st, ptr %11, i32 0, i32 0
  %13 = load ptr, ptr %12, align 8, !tbaa !37
  %14 = icmp eq ptr %13, null
  br i1 %14, label %15, label %16

15:                                               ; preds = %2
  store i32 0, ptr %3, align 4
  br label %20

16:                                               ; preds = %2
  %17 = load i64, ptr %5, align 8, !tbaa !23
  %18 = load ptr, ptr %4, align 8, !tbaa !35
  %19 = getelementptr inbounds nuw %struct.vector_st, ptr %18, i32 0, i32 1
  store i64 %17, ptr %19, align 8, !tbaa !38
  store i32 1, ptr %3, align 4
  br label %20

20:                                               ; preds = %16, %15
  %21 = load i32, ptr %3, align 4
  ret i32 %21
}

; Function Attrs: nounwind uwtable
define i32 @ossl_ml_dsa_key_priv_alloc(ptr noundef %0) #0 {
  %2 = alloca i32, align 4
  %3 = alloca ptr, align 8
  %4 = alloca i64, align 8
  %5 = alloca i64, align 8
  %6 = alloca ptr, align 8
  %7 = alloca i32, align 4
  store ptr %0, ptr %3, align 8, !tbaa !3
  call void @llvm.lifetime.start.p0(i64 8, ptr %4) #7
  %8 = load ptr, ptr %3, align 8, !tbaa !3
  %9 = getelementptr inbounds nuw %struct.ml_dsa_key_st, ptr %8, i32 0, i32 1
  %10 = load ptr, ptr %9, align 8, !tbaa !8
  %11 = getelementptr inbounds nuw %struct.ml_dsa_params_st, ptr %10, i32 0, i32 6
  %12 = load i64, ptr %11, align 8, !tbaa !34
  store i64 %12, ptr %4, align 8, !tbaa !23
  call void @llvm.lifetime.start.p0(i64 8, ptr %5) #7
  %13 = load ptr, ptr %3, align 8, !tbaa !3
  %14 = getelementptr inbounds nuw %struct.ml_dsa_key_st, ptr %13, i32 0, i32 1
  %15 = load ptr, ptr %14, align 8, !tbaa !8
  %16 = getelementptr inbounds nuw %struct.ml_dsa_params_st, ptr %15, i32 0, i32 7
  %17 = load i64, ptr %16, align 8, !tbaa !39
  store i64 %17, ptr %5, align 8, !tbaa !23
  call void @llvm.lifetime.start.p0(i64 8, ptr %6) #7
  %18 = load ptr, ptr %3, align 8, !tbaa !3
  %19 = getelementptr inbounds nuw %struct.ml_dsa_key_st, ptr %18, i32 0, i32 15
  %20 = getelementptr inbounds nuw %struct.vector_st, ptr %19, i32 0, i32 0
  %21 = load ptr, ptr %20, align 8, !tbaa !40
  %22 = icmp ne ptr %21, null
  br i1 %22, label %23, label %24

23:                                               ; preds = %1
  store i32 0, ptr %2, align 4
  store i32 1, ptr %7, align 4
  br label %57

24:                                               ; preds = %1
  %25 = load ptr, ptr %3, align 8, !tbaa !3
  %26 = getelementptr inbounds nuw %struct.ml_dsa_key_st, ptr %25, i32 0, i32 15
  %27 = load i64, ptr %5, align 8, !tbaa !23
  %28 = load i64, ptr %4, align 8, !tbaa !23
  %29 = mul i64 2, %28
  %30 = add i64 %27, %29
  %31 = call i32 @vector_alloc(ptr noundef %26, i64 noundef %30)
  %32 = icmp ne i32 %31, 0
  br i1 %32, label %34, label %33

33:                                               ; preds = %24
  store i32 0, ptr %2, align 4
  store i32 1, ptr %7, align 4
  br label %57

34:                                               ; preds = %24
  %35 = load ptr, ptr %3, align 8, !tbaa !3
  %36 = getelementptr inbounds nuw %struct.ml_dsa_key_st, ptr %35, i32 0, i32 15
  %37 = getelementptr inbounds nuw %struct.vector_st, ptr %36, i32 0, i32 0
  %38 = load ptr, ptr %37, align 8, !tbaa !40
  store ptr %38, ptr %6, align 8, !tbaa !41
  %39 = load i64, ptr %5, align 8, !tbaa !23
  %40 = load ptr, ptr %3, align 8, !tbaa !3
  %41 = getelementptr inbounds nuw %struct.ml_dsa_key_st, ptr %40, i32 0, i32 15
  %42 = getelementptr inbounds nuw %struct.vector_st, ptr %41, i32 0, i32 1
  store i64 %39, ptr %42, align 8, !tbaa !42
  %43 = load ptr, ptr %3, align 8, !tbaa !3
  %44 = getelementptr inbounds nuw %struct.ml_dsa_key_st, ptr %43, i32 0, i32 14
  %45 = load ptr, ptr %6, align 8, !tbaa !41
  %46 = load i64, ptr %5, align 8, !tbaa !23
  %47 = getelementptr inbounds nuw %struct.poly_st, ptr %45, i64 %46
  %48 = load i64, ptr %4, align 8, !tbaa !23
  call void @vector_init(ptr noundef %44, ptr noundef %47, i64 noundef %48)
  %49 = load ptr, ptr %3, align 8, !tbaa !3
  %50 = getelementptr inbounds nuw %struct.ml_dsa_key_st, ptr %49, i32 0, i32 13
  %51 = load ptr, ptr %6, align 8, !tbaa !41
  %52 = load i64, ptr %5, align 8, !tbaa !23
  %53 = getelementptr inbounds nuw %struct.poly_st, ptr %51, i64 %52
  %54 = load i64, ptr %4, align 8, !tbaa !23
  %55 = getelementptr inbounds nuw %struct.poly_st, ptr %53, i64 %54
  %56 = load i64, ptr %4, align 8, !tbaa !23
  call void @vector_init(ptr noundef %50, ptr noundef %55, i64 noundef %56)
  store i32 1, ptr %2, align 4
  store i32 1, ptr %7, align 4
  br label %57

57:                                               ; preds = %34, %33, %23
  call void @llvm.lifetime.end.p0(i64 8, ptr %6) #7
  call void @llvm.lifetime.end.p0(i64 8, ptr %5) #7
  call void @llvm.lifetime.end.p0(i64 8, ptr %4) #7
  %58 = load i32, ptr %2, align 4
  ret i32 %58
}