; Function Attrs: nounwind uwtable
define range(i32 0, 2) i32 @ossl_ml_dsa_key_priv_alloc(ptr noundef captures(none) %0) local_unnamed_addr #1 {
  %2 = getelementptr inbounds nuw i8, ptr %0, i64 8
  %3 = load ptr, ptr %2, align 8, !tbaa !3
  %4 = getelementptr inbounds nuw i8, ptr %3, i64 32
  %5 = load i64, ptr %4, align 8, !tbaa !27
  %6 = getelementptr inbounds nuw i8, ptr %3, i64 40
  %7 = load i64, ptr %6, align 8, !tbaa !30
  %8 = getelementptr inbounds nuw i8, ptr %0, i64 240
  %9 = load ptr, ptr %8, align 8, !tbaa !31
  %.not = icmp eq ptr %9, null
  br i1 %.not, label %10, label %vector_alloc.exit.thread

10:                                               ; preds = %1
  %11 = shl i64 %5, 11
  %12 = shl i64 %7, 10
  %13 = add i64 %12, %11
  %14 = tail call noalias ptr @CRYPTO_malloc(i64 noundef %13, ptr noundef nonnull @.str.3, i32 noundef 36) #9
  store ptr %14, ptr %8, align 8, !tbaa !28
  %15 = icmp eq ptr %14, null
  br i1 %15, label %vector_alloc.exit.thread, label %16

16:                                               ; preds = %10
  %17 = getelementptr inbounds nuw i8, ptr %0, i64 248
  store i64 %7, ptr %17, align 8, !tbaa !32
  %18 = getelementptr inbounds nuw i8, ptr %0, i64 224
  %19 = getelementptr inbounds nuw %struct.poly_st, ptr %14, i64 %7
  store ptr %19, ptr %18, align 8, !tbaa !28
  %20 = getelementptr inbounds nuw i8, ptr %0, i64 232
  store i64 %5, ptr %20, align 8, !tbaa !29
  %21 = getelementptr inbounds nuw i8, ptr %0, i64 208
  %22 = getelementptr inbounds nuw %struct.poly_st, ptr %19, i64 %5
  store ptr %22, ptr %21, align 8, !tbaa !28
  %23 = getelementptr inbounds nuw i8, ptr %0, i64 216
  store i64 %5, ptr %23, align 8, !tbaa !29
  br label %vector_alloc.exit.thread

vector_alloc.exit.thread:                         ; preds = %10, %1, %16
  %.0 = phi i32 [ 1, %16 ], [ 0, %1 ], [ 0, %10 ]
  ret i32 %.0
}